; Function Attrs: nounwind uwtable
define internal noundef ptr @_io_StringIO_readable(ptr noundef readonly captures(none) %0, ptr readnone captures(none) %1) #0 {
  %3 = getelementptr inbounds nuw i8, ptr %0, i64 64
  %4 = load i8, ptr %3, align 8, !tbaa !14
  %5 = icmp slt i8 %4, 1
  br i1 %5, label %.sink.split.i, label %6

6:                                                ; preds = %2
  %7 = getelementptr inbounds nuw i8, ptr %0, i64 65
  %8 = load i8, ptr %7, align 1, !tbaa !38
  %.not.i = icmp eq i8 %8, 0
  br i1 %.not.i, label %_io_StringIO_readable_impl.exit, label %.sink.split.i

.sink.split.i:                                    ; preds = %6, %2
  %.str.3.sink.i = phi ptr [ @.str.2, %2 ], [ @.str.3, %6 ]
  %9 = load ptr, ptr @PyExc_ValueError, align 8, !tbaa !37
  tail call void @PyErr_SetString(ptr noundef %9, ptr noundef nonnull %.str.3.sink.i) #6
  br label %_io_StringIO_readable_impl.exit

_io_StringIO_readable_impl.exit:                  ; preds = %6, %.sink.split.i
  %.0.i = phi ptr [ @_Py_TrueStruct, %6 ], [ null, %.sink.split.i ]
  ret ptr %.0.i
}